target datalayout = "e-m:e-p270:32:32-p271:32:32-p272:64:64-i64:64-i128:128-f80:128-n8:16:32:64-S128"
target triple = "x86_64-pc-linux-gnu"

%struct.ComplexMatrixN = type { i32, ptr, ptr }
%struct.Qureg = type { i32, i32, i32, i64, i64, i32, i32, %struct.ComplexArray, %struct.ComplexArray, %struct.ComplexArray, ptr, ptr, ptr, ptr, ptr, ptr }
%struct.ComplexArray = type { ptr, ptr }

@__func__.validateMultiQubitKrausMapDimensions = private unnamed_addr constant [37 x i8] c"validateMultiQubitKrausMapDimensions\00", align 1

; Function Attrs: nounwind uwtable
define void @validateMultiQubitMatrixFitsInNode(ptr noundef byval(%struct.Qureg) align 8 %0, i32 noundef %1, ptr noundef %2) #0 {
  %4 = alloca i32, align 4
  %5 = alloca ptr, align 8
  store i32 %1, ptr %4, align 4, !tbaa !9
  store ptr %2, ptr %5, align 8, !tbaa !4
  %6 = getelementptr inbounds nuw %struct.Qureg, ptr %0, i32 0, i32 3
  %7 = load i64, ptr %6, align 8, !tbaa !46
  %8 = load i32, ptr %4, align 4, !tbaa !9
  %9 = zext i32 %8 to i64
  %10 = shl i64 1, %9
  %11 = icmp sge i64 %7, %10
  %12 = zext i1 %11 to i32
  %13 = load ptr, ptr %5, align 8, !tbaa !4
  call void @QuESTAssert(i32 noundef %12, i32 noundef 46, ptr noundef %13)
  ret void
}

; Function Attrs: nounwind uwtable
define void @validateMatrixInit(ptr noundef byval(%struct.ComplexMatrixN) align 8 %0, ptr noundef %1) #0 {
  %3 = alloca ptr, align 8
  store ptr %1, ptr %3, align 8, !tbaa !4
  %4 = getelementptr inbounds nuw %struct.ComplexMatrixN, ptr %0, i32 0, i32 1
  %5 = load ptr, ptr %4, align 8, !tbaa !20
  %6 = icmp ne ptr %5, null
  br i1 %6, label %7, label %11

7:                                                ; preds = %2
  %8 = getelementptr inbounds nuw %struct.ComplexMatrixN, ptr %0, i32 0, i32 2
  %9 = load ptr, ptr %8, align 8, !tbaa !23
  %10 = icmp ne ptr %9, null
  br label %11

11:                                               ; preds = %7, %2
  %12 = phi i1 [ false, %2 ], [ %10, %7 ]
  %13 = zext i1 %12 to i32
  %14 = load ptr, ptr %3, align 8, !tbaa !4
  call void @QuESTAssert(i32 noundef %13, i32 noundef 48, ptr noundef %14)
  ret void
}

; Function Attrs: nounwind uwtable
define void @QuESTAssert(i32 noundef %0, i32 noundef %1, ptr noundef %2) #0 {
  %4 = alloca i32, align 4
  %5 = alloca i32, align 4
  %6 = alloca ptr, align 8
  store i32 %0, ptr %4, align 4, !tbaa !9
  store i32 %1, ptr %5, align 4, !tbaa !9
  store ptr %2, ptr %6, align 8, !tbaa !4
  %7 = load i32, ptr %4, align 4, !tbaa !9
  %8 = icmp ne i32 %7, 0
  br i1 %8, label %15, label %9

9:                                                ; preds = %3
  %10 = load i32, ptr %5, align 4, !tbaa !9
  %11 = zext i32 %10 to i64
  %12 = getelementptr inbounds nuw [92 x ptr], ptr @errorMessages, i64 0, i64 %11
  %13 = load ptr, ptr %12, align 8, !tbaa !4
  %14 = load ptr, ptr %6, align 8, !tbaa !4
  call void @invalidQuESTInputError(ptr noundef %13, ptr noundef %14)
  br label %15

15:                                               ; preds = %9, %3
  ret void
}

; Function Attrs: nounwind uwtable
define void @validateMultiQubitKrausMapDimensions(ptr noundef byval(%struct.Qureg) align 8 %0, i32 noundef %1, ptr noundef %2, i32 noundef %3, ptr noundef %4) #0 {
  %6 = alloca i32, align 4
  %7 = alloca ptr, align 8
  %8 = alloca i32, align 4
  %9 = alloca ptr, align 8
  %10 = alloca i32, align 4
  %11 = alloca i32, align 4
  %12 = alloca i32, align 4
  %13 = alloca i32, align 4
  store i32 %1, ptr %6, align 4, !tbaa !9
  store ptr %2, ptr %7, align 8, !tbaa !28
  store i32 %3, ptr %8, align 4, !tbaa !9
  store ptr %4, ptr %9, align 8, !tbaa !4
  call void @llvm.lifetime.start.p0(i64 4, ptr %10) #7
  %14 = load i32, ptr %6, align 4, !tbaa !9
  store i32 %14, ptr %10, align 4, !tbaa !9
  call void @llvm.lifetime.start.p0(i64 4, ptr %11) #7
  %15 = load i32, ptr %10, align 4, !tbaa !9
  %16 = mul nsw i32 2, %15
  store i32 %16, ptr %11, align 4, !tbaa !9
  call void @llvm.lifetime.start.p0(i64 4, ptr %12) #7
  %17 = load i32, ptr %11, align 4, !tbaa !9
  %18 = load i32, ptr %11, align 4, !tbaa !9
  %19 = mul nsw i32 %17, %18
  store i32 %19, ptr %12, align 4, !tbaa !9
  %20 = load i32, ptr %8, align 4, !tbaa !9
  %21 = icmp sgt i32 %20, 0
  br i1 %21, label %22, label %26

22:                                               ; preds = %5
  %23 = load i32, ptr %8, align 4, !tbaa !9
  %24 = load i32, ptr %12, align 4, !tbaa !9
  %25 = icmp sle i32 %23, %24
  br label %26

26:                                               ; preds = %22, %5
  %27 = phi i1 [ false, %5 ], [ %25, %22 ]
  %28 = zext i1 %27 to i32
  %29 = load ptr, ptr %9, align 8, !tbaa !4
  call void @QuESTAssert(i32 noundef %28, i32 noundef 51, ptr noundef %29)
  call void @llvm.lifetime.start.p0(i64 4, ptr %13) #7
  store i32 0, ptr %13, align 4, !tbaa !9
  br label %30

30:                                               ; preds = %50, %26
  %31 = load i32, ptr %13, align 4, !tbaa !9
  %32 = load i32, ptr %8, align 4, !tbaa !9
  %33 = icmp slt i32 %31, %32
  br i1 %33, label %35, label %34

34:                                               ; preds = %30
  call void @llvm.lifetime.end.p0(i64 4, ptr %13) #7
  br label %53

35:                                               ; preds = %30
  %36 = load ptr, ptr %7, align 8, !tbaa !28
  %37 = load i32, ptr %13, align 4, !tbaa !9
  %38 = sext i32 %37 to i64
  %39 = getelementptr inbounds %struct.ComplexMatrixN, ptr %36, i64 %38
  call void @validateMatrixInit(ptr noundef byval(%struct.ComplexMatrixN) align 8 %39, ptr noundef @__func__.validateMultiQubitKrausMapDimensions)
  %40 = load ptr, ptr %7, align 8, !tbaa !28
  %41 = load i32, ptr %13, align 4, !tbaa !9
  %42 = sext i32 %41 to i64
  %43 = getelementptr inbounds %struct.ComplexMatrixN, ptr %40, i64 %42
  %44 = getelementptr inbounds nuw %struct.ComplexMatrixN, ptr %43, i32 0, i32 0
  %45 = load i32, ptr %44, align 8, !tbaa !16
  %46 = load i32, ptr %6, align 4, !tbaa !9
  %47 = icmp eq i32 %45, %46
  %48 = zext i1 %47 to i32
  %49 = load ptr, ptr %9, align 8, !tbaa !4
  call void @QuESTAssert(i32 noundef %48, i32 noundef 53, ptr noundef %49)
  br label %50

50:                                               ; preds = %35
  %51 = load i32, ptr %13, align 4, !tbaa !9
  %52 = add nsw i32 %51, 1
  store i32 %52, ptr %13, align 4, !tbaa !9
  br label %30

53:                                               ; preds = %34
  %54 = load i32, ptr %11, align 4, !tbaa !9
  %55 = load ptr, ptr %9, align 8, !tbaa !4
  call void @validateMultiQubitMatrixFitsInNode(ptr noundef byval(%struct.Qureg) align 8 %0, i32 noundef %54, ptr noundef %55)
  call void @llvm.lifetime.end.p0(i64 4, ptr %12) #7
  call void @llvm.lifetime.end.p0(i64 4, ptr %11) #7
  call void @llvm.lifetime.end.p0(i64 4, ptr %10) #7
  ret void
}