; Function Attrs: nounwind uwtable
define void @validateMultiQubitKrausMapDimensions(ptr noundef readonly byval(%struct.Qureg) align 8 captures(none) %0, i32 noundef %1, ptr noundef readonly captures(none) %2, i32 noundef %3, ptr noundef %4) local_unnamed_addr #3 {
  %6 = shl nsw i32 %1, 1
  %7 = mul nsw i32 %6, %6
  %8 = icmp slt i32 %3, 1
  %9 = icmp sgt i32 %3, %7
  %.not25 = select i1 %8, i1 true, i1 %9
  br i1 %.not25, label %QuESTAssert.exit, label %.lr.ph.preheader

QuESTAssert.exit:                                 ; preds = %5
  tail call void @invalidQuESTInputError(ptr noundef nonnull @.str.53, ptr noundef %4)
  %10 = icmp sgt i32 %3, 0
  br i1 %10, label %.lr.ph.preheader, label %._crit_edge

.lr.ph.preheader:                                 ; preds = %5, %QuESTAssert.exit
  %wide.trip.count = zext nneg i32 %3 to i64
  br label %.lr.ph

._crit_edge:                                      ; preds = %QuESTAssert.exit20, %QuESTAssert.exit
  %.sroa.3.0..sroa_idx = getelementptr inbounds nuw i8, ptr %0, i64 16
  %.sroa.3.0.copyload = load i64, ptr %.sroa.3.0..sroa_idx, align 8
  %11 = zext nneg i32 %6 to i64
  %12 = shl nuw i64 1, %11
  %.not.i18 = icmp slt i64 %.sroa.3.0.copyload, %12
  br i1 %.not.i18, label %13, label %validateMultiQubitMatrixFitsInNode.exit

13:                                               ; preds = %._crit_edge
  tail call void @invalidQuESTInputError(ptr noundef nonnull @.str.48, ptr noundef %4)
  br label %validateMultiQubitMatrixFitsInNode.exit

validateMultiQubitMatrixFitsInNode.exit:          ; preds = %._crit_edge, %13
  ret void

.lr.ph:                                           ; preds = %.lr.ph.preheader, %QuESTAssert.exit20
  %indvars.iv = phi i64 [ 0, %.lr.ph.preheader ], [ %indvars.iv.next, %QuESTAssert.exit20 ]
  %14 = getelementptr inbounds nuw %struct.ComplexMatrixN, ptr %2, i64 %indvars.iv
  %.sroa.322.0..sroa_idx = getelementptr inbounds nuw i8, ptr %14, i64 8
  %.sroa.322.0.copyload = load ptr, ptr %.sroa.322.0..sroa_idx, align 1
  %.sroa.423.0..sroa_idx = getelementptr inbounds nuw i8, ptr %14, i64 16
  %.sroa.423.0.copyload = load ptr, ptr %.sroa.423.0..sroa_idx, align 1
  %15 = icmp eq ptr %.sroa.322.0.copyload, null
  %16 = icmp eq ptr %.sroa.423.0.copyload, null
  %.not2.i = select i1 %15, i1 true, i1 %16
  br i1 %.not2.i, label %17, label %validateMatrixInit.exit

17:                                               ; preds = %.lr.ph
  tail call void @invalidQuESTInputError(ptr noundef nonnull @.str.50, ptr noundef nonnull @__func__.validateMultiQubitKrausMapDimensions)
  br label %validateMatrixInit.exit

validateMatrixInit.exit:                          ; preds = %.lr.ph, %17
  %18 = load i32, ptr %14, align 8, !tbaa !11
  %.not = icmp eq i32 %18, %1
  br i1 %.not, label %QuESTAssert.exit20, label %19

19:                                               ; preds = %validateMatrixInit.exit
  tail call void @invalidQuESTInputError(ptr noundef nonnull @.str.55, ptr noundef %4)
  br label %QuESTAssert.exit20

QuESTAssert.exit20:                               ; preds = %validateMatrixInit.exit, %19
  %indvars.iv.next = add nuw nsw i64 %indvars.iv, 1
  %exitcond.not = icmp eq i64 %indvars.iv.next, %wide.trip.count
  br i1 %exitcond.not, label %._crit_edge, label %.lr.ph
}